; ModuleID = 'source-C-CXX/12/1892.cpp'
source_filename = "source-C-CXX/12/1892.cpp"
target datalayout = "e-m:e-p270:32:32-p271:32:32-p272:64:64-i64:64-f80:128-n8:16:32:64-S128"
target triple = "x86_64-pc-linux-gnu"

%"class.std::ios_base::Init" = type { i8 }
%"class.std::basic_istream" = type { i32 (...)**, i64, %"class.std::basic_ios" }
%"class.std::basic_ios" = type { %"class.std::ios_base", %"class.std::basic_ostream"*, i8, i8, %"class.std::basic_streambuf"*, %"class.std::ctype"*, %"class.std::num_put"*, %"class.std::num_get"* }
%"class.std::ios_base" = type { i32 (...)**, i64, i64, i32, i32, i32, %"struct.std::ios_base::_Callback_list"*, %"struct.std::ios_base::_Words", [8 x %"struct.std::ios_base::_Words"], i32, %"struct.std::ios_base::_Words"*, %"class.std::locale" }
%"struct.std::ios_base::_Callback_list" = type { %"struct.std::ios_base::_Callback_list"*, void (i32, %"class.std::ios_base"*, i32)*, i32, i32 }
%"struct.std::ios_base::_Words" = type { i8*, i64 }
%"class.std::locale" = type { %"class.std::locale::_Impl"* }
%"class.std::locale::_Impl" = type { i32, %"class.std::locale::facet"**, i64, %"class.std::locale::facet"**, i8** }
%"class.std::locale::facet" = type <{ i32 (...)**, i32, [4 x i8] }>
%"class.std::basic_ostream" = type { i32 (...)**, %"class.std::basic_ios" }
%"class.std::basic_streambuf" = type { i32 (...)**, i8*, i8*, i8*, i8*, i8*, i8*, %"class.std::locale" }
%"class.std::ctype" = type <{ %"class.std::locale::facet.base", [4 x i8], %struct.__locale_struct*, i8, [7 x i8], i32*, i32*, i16*, i8, [256 x i8], [256 x i8], i8, [6 x i8] }>
%"class.std::locale::facet.base" = type <{ i32 (...)**, i32 }>
%struct.__locale_struct = type { [13 x %struct.__locale_data*], i16*, i32*, i32*, [13 x i8*] }
%struct.__locale_data = type opaque
%"class.std::num_put" = type { %"class.std::locale::facet.base", [4 x i8] }
%"class.std::num_get" = type { %"class.std::locale::facet.base", [4 x i8] }

@_ZStL8__ioinit = internal global %"class.std::ios_base::Init" zeroinitializer, align 1
@__dso_handle = external hidden global i8
@_ZSt3cin = external global %"class.std::basic_istream", align 8
@_ZSt4cout = external global %"class.std::basic_ostream", align 8
@.str = private unnamed_addr constant [2 x i8] c" \00", align 1
@llvm.global_ctors = appending global [1 x { i32, void ()*, i8* }] [{ i32, void ()*, i8* } { i32 65535, void ()* @_GLOBAL__sub_I_1892.cpp, i8* null }]

declare void @_ZNSt8ios_base4InitC1Ev(%"class.std::ios_base::Init"* nonnull align 1 dereferenceable(1)) unnamed_addr #0

; Function Attrs: nounwind
declare void @_ZNSt8ios_base4InitD1Ev(%"class.std::ios_base::Init"* nonnull align 1 dereferenceable(1)) unnamed_addr #1

; Function Attrs: nofree nounwind
declare i32 @__cxa_atexit(void (i8*)*, i8*, i8*) local_unnamed_addr #2

; Function Attrs: mustprogress norecurse sspstrong uwtable
define dso_local i32 @main(i32 %0, i8** nocapture readnone %1) local_unnamed_addr #3 {
  %3 = alloca i32, align 4
  %4 = bitcast i32* %3 to i8*
  call void @llvm.lifetime.start.p0i8(i64 4, i8* nonnull %4) #7
  store i32 0, i32* %3, align 4, !tbaa !5
  %5 = call nonnull align 8 dereferenceable(16) %"class.std::basic_istream"* @_ZNSirsERi(%"class.std::basic_istream"* nonnull align 8 dereferenceable(16) @_ZSt3cin, i32* nonnull align 4 dereferenceable(4) %3)
  %6 = load i32, i32* %3, align 4, !tbaa !5
  %7 = zext i32 %6 to i64
  %8 = call i8* @llvm.stacksave()
  %9 = alloca i32, i64 %7, align 16
  %10 = load i32, i32* %3, align 4, !tbaa !5
  %11 = icmp sgt i32 %10, 0
  br i1 %11, label %17, label %14

12:                                               ; preds = %17
  %13 = icmp sgt i32 %22, 1
  br i1 %13, label %35, label %14

14:                                               ; preds = %12, %2
  %15 = phi i32 [ %22, %12 ], [ %10, %2 ]
  %16 = add nsw i32 %15, -1
  br label %32

17:                                               ; preds = %2, %17
  %18 = phi i64 [ %21, %17 ], [ 0, %2 ]
  %19 = getelementptr inbounds i32, i32* %9, i64 %18
  %20 = call nonnull align 8 dereferenceable(16) %"class.std::basic_istream"* @_ZNSirsERi(%"class.std::basic_istream"* nonnull align 8 dereferenceable(16) @_ZSt3cin, i32* nonnull align 4 dereferenceable(4) %19)
  %21 = add nuw nsw i64 %18, 1
  %22 = load i32, i32* %3, align 4, !tbaa !5
  %23 = sext i32 %22 to i64
  %24 = icmp slt i64 %21, %23
  br i1 %24, label %17, label %12, !llvm.loop !9

25:                                               ; preds = %131, %35
  %26 = phi i32 [ %36, %35 ], [ %132, %131 ]
  %27 = add nsw i32 %26, -1
  %28 = sext i32 %27 to i64
  %29 = icmp slt i64 %38, %28
  br i1 %29, label %35, label %30, !llvm.loop !11

30:                                               ; preds = %25
  %31 = icmp sgt i32 %26, 1
  br i1 %31, label %137, label %32

32:                                               ; preds = %14, %30
  %33 = phi i32 [ %16, %14 ], [ %27, %30 ]
  %34 = sext i32 %33 to i64
  br label %148

35:                                               ; preds = %12, %25
  %36 = phi i32 [ %26, %25 ], [ %22, %12 ]
  %37 = phi i64 [ %38, %25 ], [ 0, %12 ]
  %38 = add nuw nsw i64 %37, 1
  %39 = getelementptr inbounds i32, i32* %9, i64 %37
  %40 = sext i32 %36 to i64
  %41 = icmp slt i64 %38, %40
  br i1 %41, label %42, label %25

42:                                               ; preds = %35
  %43 = trunc i64 %38 to i32
  br label %44

44:                                               ; preds = %42, %131
  %45 = phi i32 [ %132, %131 ], [ %36, %42 ]
  %46 = phi i32 [ %133, %131 ], [ %36, %42 ]
  %47 = phi i32 [ %135, %131 ], [ %43, %42 ]
  %48 = load i32, i32* %39, align 4, !tbaa !5
  %49 = sext i32 %47 to i64
  %50 = getelementptr inbounds i32, i32* %9, i64 %49
  %51 = load i32, i32* %50, align 4, !tbaa !5
  %52 = icmp eq i32 %48, %51
  br i1 %52, label %53, label %131

53:                                               ; preds = %44
  %54 = add i32 %46, -1
  %55 = icmp slt i32 %47, %54
  br i1 %55, label %56, label %129

56:                                               ; preds = %53
  %57 = sext i32 %54 to i64
  %58 = sext i32 %54 to i64
  %59 = sub nsw i64 %58, %49
  %60 = icmp ult i64 %59, 8
  br i1 %60, label %120, label %61

61:                                               ; preds = %56
  %62 = and i64 %59, -8
  %63 = add nsw i64 %62, %49
  %64 = add nsw i64 %62, -8
  %65 = lshr exact i64 %64, 3
  %66 = add nuw nsw i64 %65, 1
  %67 = and i64 %66, 1
  %68 = icmp eq i64 %64, 0
  br i1 %68, label %102, label %69

69:                                               ; preds = %61
  %70 = and i64 %66, 4611686018427387902
  br label %71

71:                                               ; preds = %71, %69
  %72 = phi i64 [ 0, %69 ], [ %99, %71 ]
  %73 = phi i64 [ %70, %69 ], [ %100, %71 ]
  %74 = add i64 %72, %49
  %75 = add nsw i64 %74, 1
  %76 = getelementptr inbounds i32, i32* %9, i64 %75
  %77 = bitcast i32* %76 to <4 x i32>*
  %78 = load <4 x i32>, <4 x i32>* %77, align 4, !tbaa !5
  %79 = getelementptr inbounds i32, i32* %76, i64 4
  %80 = bitcast i32* %79 to <4 x i32>*
  %81 = load <4 x i32>, <4 x i32>* %80, align 4, !tbaa !5
  %82 = getelementptr inbounds i32, i32* %9, i64 %74
  %83 = bitcast i32* %82 to <4 x i32>*
  store <4 x i32> %78, <4 x i32>* %83, align 4, !tbaa !5
  %84 = getelementptr inbounds i32, i32* %82, i64 4
  %85 = bitcast i32* %84 to <4 x i32>*
  store <4 x i32> %81, <4 x i32>* %85, align 4, !tbaa !5
  %86 = or i64 %72, 8
  %87 = add i64 %86, %49
  %88 = add nsw i64 %87, 1
  %89 = getelementptr inbounds i32, i32* %9, i64 %88
  %90 = bitcast i32* %89 to <4 x i32>*
  %91 = load <4 x i32>, <4 x i32>* %90, align 4, !tbaa !5
  %92 = getelementptr inbounds i32, i32* %89, i64 4
  %93 = bitcast i32* %92 to <4 x i32>*
  %94 = load <4 x i32>, <4 x i32>* %93, align 4, !tbaa !5
  %95 = getelementptr inbounds i32, i32* %9, i64 %87
  %96 = bitcast i32* %95 to <4 x i32>*
  store <4 x i32> %91, <4 x i32>* %96, align 4, !tbaa !5
  %97 = getelementptr inbounds i32, i32* %95, i64 4
  %98 = bitcast i32* %97 to <4 x i32>*
  store <4 x i32> %94, <4 x i32>* %98, align 4, !tbaa !5
  %99 = add nuw i64 %72, 16
  %100 = add i64 %73, -2
  %101 = icmp eq i64 %100, 0
  br i1 %101, label %102, label %71, !llvm.loop !12

102:                                              ; preds = %71, %61
  %103 = phi i64 [ 0, %61 ], [ %99, %71 ]
  %104 = icmp eq i64 %67, 0
  br i1 %104, label %118, label %105

105:                                              ; preds = %102
  %106 = add i64 %103, %49
  %107 = add nsw i64 %106, 1
  %108 = getelementptr inbounds i32, i32* %9, i64 %107
  %109 = bitcast i32* %108 to <4 x i32>*
  %110 = load <4 x i32>, <4 x i32>* %109, align 4, !tbaa !5
  %111 = getelementptr inbounds i32, i32* %108, i64 4
  %112 = bitcast i32* %111 to <4 x i32>*
  %113 = load <4 x i32>, <4 x i32>* %112, align 4, !tbaa !5
  %114 = getelementptr inbounds i32, i32* %9, i64 %106
  %115 = bitcast i32* %114 to <4 x i32>*
  store <4 x i32> %110, <4 x i32>* %115, align 4, !tbaa !5
  %116 = getelementptr inbounds i32, i32* %114, i64 4
  %117 = bitcast i32* %116 to <4 x i32>*
  store <4 x i32> %113, <4 x i32>* %117, align 4, !tbaa !5
  br label %118

118:                                              ; preds = %102, %105
  %119 = icmp eq i64 %59, %62
  br i1 %119, label %129, label %120

120:                                              ; preds = %56, %118
  %121 = phi i64 [ %49, %56 ], [ %63, %118 ]
  br label %122

122:                                              ; preds = %120, %122
  %123 = phi i64 [ %124, %122 ], [ %121, %120 ]
  %124 = add nsw i64 %123, 1
  %125 = getelementptr inbounds i32, i32* %9, i64 %124
  %126 = load i32, i32* %125, align 4, !tbaa !5
  %127 = getelementptr inbounds i32, i32* %9, i64 %123
  store i32 %126, i32* %127, align 4, !tbaa !5
  %128 = icmp eq i64 %124, %57
  br i1 %128, label %129, label %122, !llvm.loop !14

129:                                              ; preds = %122, %118, %53
  store i32 %54, i32* %3, align 4, !tbaa !5
  %130 = add nsw i32 %47, -1
  br label %131

131:                                              ; preds = %44, %129
  %132 = phi i32 [ %54, %129 ], [ %45, %44 ]
  %133 = phi i32 [ %54, %129 ], [ %46, %44 ]
  %134 = phi i32 [ %130, %129 ], [ %47, %44 ]
  %135 = add nsw i32 %134, 1
  %136 = icmp slt i32 %135, %133
  br i1 %136, label %44, label %25, !llvm.loop !16

137:                                              ; preds = %30, %137
  %138 = phi i64 [ %143, %137 ], [ 0, %30 ]
  %139 = getelementptr inbounds i32, i32* %9, i64 %138
  %140 = load i32, i32* %139, align 4, !tbaa !5
  %141 = call nonnull align 8 dereferenceable(8) %"class.std::basic_ostream"* @_ZNSolsEi(%"class.std::basic_ostream"* nonnull align 8 dereferenceable(8) @_ZSt4cout, i32 %140)
  %142 = call nonnull align 8 dereferenceable(8) %"class.std::basic_ostream"* @_ZSt16__ostream_insertIcSt11char_traitsIcEERSt13basic_ostreamIT_T0_ES6_PKS3_l(%"class.std::basic_ostream"* nonnull align 8 dereferenceable(8) %141, i8* nonnull getelementptr inbounds ([2 x i8], [2 x i8]* @.str, i64 0, i64 0), i64 1)
  %143 = add nuw nsw i64 %138, 1
  %144 = load i32, i32* %3, align 4, !tbaa !5
  %145 = add nsw i32 %144, -1
  %146 = sext i32 %145 to i64
  %147 = icmp slt i64 %143, %146
  br i1 %147, label %137, label %148, !llvm.loop !17

148:                                              ; preds = %137, %32
  %149 = phi i64 [ %34, %32 ], [ %146, %137 ]
  %150 = getelementptr inbounds i32, i32* %9, i64 %149
  %151 = load i32, i32* %150, align 4, !tbaa !5
  %152 = call nonnull align 8 dereferenceable(8) %"class.std::basic_ostream"* @_ZNSolsEi(%"class.std::basic_ostream"* nonnull align 8 dereferenceable(8) @_ZSt4cout, i32 %151)
  call void @llvm.stackrestore(i8* %8)
  call void @llvm.lifetime.end.p0i8(i64 4, i8* nonnull %4) #7
  ret i32 0
}

; Function Attrs: argmemonly mustprogress nofree nosync nounwind willreturn
declare void @llvm.lifetime.start.p0i8(i64 immarg, i8* nocapture) #4

declare nonnull align 8 dereferenceable(16) %"class.std::basic_istream"* @_ZNSirsERi(%"class.std::basic_istream"* nonnull align 8 dereferenceable(16), i32* nonnull align 4 dereferenceable(4)) local_unnamed_addr #0

; Function Attrs: mustprogress nofree nosync nounwind willreturn
declare i8* @llvm.stacksave() #5

declare nonnull align 8 dereferenceable(8) %"class.std::basic_ostream"* @_ZNSolsEi(%"class.std::basic_ostream"* nonnull align 8 dereferenceable(8), i32) local_unnamed_addr #0

; Function Attrs: argmemonly mustprogress nofree nosync nounwind willreturn
declare void @llvm.lifetime.end.p0i8(i64 immarg, i8* nocapture) #4

; Function Attrs: mustprogress nofree nosync nounwind willreturn
declare void @llvm.stackrestore(i8*) #5

declare nonnull align 8 dereferenceable(8) %"class.std::basic_ostream"* @_ZSt16__ostream_insertIcSt11char_traitsIcEERSt13basic_ostreamIT_T0_ES6_PKS3_l(%"class.std::basic_ostream"* nonnull align 8 dereferenceable(8), i8*, i64) local_unnamed_addr #0

; Function Attrs: sspstrong uwtable
define internal void @_GLOBAL__sub_I_1892.cpp() #6 section ".text.startup" {
  tail call void @_ZNSt8ios_base4InitC1Ev(%"class.std::ios_base::Init"* nonnull align 1 dereferenceable(1) @_ZStL8__ioinit)
  %1 = tail call i32 @__cxa_atexit(void (i8*)* bitcast (void (%"class.std::ios_base::Init"*)* @_ZNSt8ios_base4InitD1Ev to void (i8*)*), i8* getelementptr inbounds (%"class.std::ios_base::Init", %"class.std::ios_base::Init"* @_ZStL8__ioinit, i64 0, i32 0), i8* nonnull @__dso_handle) #7
  ret void
}


!llvm.module.flags = !{!0, !1, !2, !3}
!llvm.ident = !{!4}

!0 = !{i32 1, !"wchar_size", i32 4}
!1 = !{i32 7, !"PIC Level", i32 2}
!2 = !{i32 7, !"PIE Level", i32 2}
!3 = !{i32 7, !"uwtable", i32 1}
!4 = !{!"clang version 13.0.0"}
!5 = !{!6, !6, i64 0}
!6 = !{!"int", !7, i64 0}
!7 = !{!"omnipotent char", !8, i64 0}
!8 = !{!"Simple C++ TBAA"}
!9 = distinct !{!9, !10}
!10 = !{!"llvm.loop.mustprogress"}
!11 = distinct !{!11, !10}
!12 = distinct !{!12, !10, !13}
!13 = !{!"llvm.loop.isvectorized", i32 1}
!14 = distinct !{!14, !10, !15, !13}
!15 = !{!"llvm.loop.unroll.runtime.disable"}
!16 = distinct !{!16, !10}
!17 = distinct !{!17, !10}
